; Function Attrs: nounwind uwtable
define ptr @l_StateT_monadControl___rarg___lambda__7(ptr noundef %0, ptr readnone captures(none) %1, ptr noundef %2, ptr noundef %3) #0 {
  %5 = getelementptr inbounds nuw i8, ptr %0, i64 16
  %6 = load ptr, ptr %5, align 8, !tbaa !9
  %7 = ptrtoint ptr %6 to i64
  %8 = and i64 %7, 1
  %.not = icmp eq i64 %8, 0
  br i1 %.not, label %9, label %lean_inc.exit22

9:                                                ; preds = %4
  %.val.i = load i32, ptr %6, align 4, !tbaa !4
  %10 = icmp sgt i32 %.val.i, 0
  br i1 %10, label %11, label %13, !prof !13

11:                                               ; preds = %9
  %12 = add nuw i32 %.val.i, 1
  store i32 %12, ptr %6, align 4, !tbaa !4
  br label %lean_inc.exit22

13:                                               ; preds = %9
  %.not.i = icmp eq i32 %.val.i, 0
  br i1 %.not.i, label %lean_inc.exit22, label %14

14:                                               ; preds = %13
  tail call void @lean_inc_ref_cold(ptr noundef nonnull %6) #3
  br label %lean_inc.exit22

lean_inc.exit22:                                  ; preds = %14, %13, %11, %4
  %15 = ptrtoint ptr %0 to i64
  %16 = and i64 %15, 1
  %.not33 = icmp eq i64 %16, 0
  br i1 %.not33, label %17, label %lean_inc.exit21

17:                                               ; preds = %lean_inc.exit22
  %.val.i23 = load i32, ptr %0, align 4, !tbaa !4
  %18 = icmp sgt i32 %.val.i23, 0
  br i1 %18, label %19, label %21, !prof !13

19:                                               ; preds = %17
  %20 = add nuw i32 %.val.i23, 1
  store i32 %20, ptr %0, align 4, !tbaa !4
  br label %lean_inc.exit21

21:                                               ; preds = %17
  %.not.i24 = icmp eq i32 %.val.i23, 0
  br i1 %.not.i24, label %lean_inc.exit21, label %22

22:                                               ; preds = %21
  tail call void @lean_inc_ref_cold(ptr noundef nonnull %0) #3
  br label %lean_inc.exit21

lean_inc.exit21:                                  ; preds = %22, %21, %19, %lean_inc.exit22
  tail call void @lean_inc_heartbeat() #3
  %23 = tail call noalias ptr @mi_malloc_small(i64 noundef 40) #3
  %24 = icmp eq ptr %23, null
  br i1 %24, label %25, label %lean_alloc_closure.exit

25:                                               ; preds = %lean_inc.exit21
  tail call void @lean_internal_panic_out_of_memory() #4
  unreachable

lean_alloc_closure.exit:                          ; preds = %lean_inc.exit21
  %26 = getelementptr inbounds nuw i8, ptr %23, i64 4
  store i32 1, ptr %23, align 4, !tbaa !4
  store i32 -184549336, ptr %26, align 4
  %27 = getelementptr inbounds nuw i8, ptr %23, i64 8
  store ptr @l_StateT_lift___rarg___lambda__1, ptr %27, align 8, !tbaa !9
  %28 = getelementptr inbounds nuw i8, ptr %23, i64 16
  store i16 3, ptr %28, align 8, !tbaa !11
  %29 = getelementptr inbounds nuw i8, ptr %23, i64 18
  store i16 2, ptr %29, align 2, !tbaa !11
  %30 = getelementptr inbounds nuw i8, ptr %23, i64 24
  store ptr %0, ptr %30, align 8, !tbaa !9
  %31 = getelementptr inbounds nuw i8, ptr %23, i64 32
  store ptr %3, ptr %31, align 8, !tbaa !9
  br i1 %.not, label %32, label %lean_inc.exit20

32:                                               ; preds = %lean_alloc_closure.exit
  %.val.i26 = load i32, ptr %6, align 4, !tbaa !4
  %33 = icmp sgt i32 %.val.i26, 0
  br i1 %33, label %34, label %36, !prof !13

34:                                               ; preds = %32
  %35 = add nuw i32 %.val.i26, 1
  store i32 %35, ptr %6, align 4, !tbaa !4
  br label %39

36:                                               ; preds = %32
  %.not.i27 = icmp eq i32 %.val.i26, 0
  br i1 %.not.i27, label %39, label %37

37:                                               ; preds = %36
  tail call void @lean_inc_ref_cold(ptr noundef nonnull %6) #3
  br label %39

lean_inc.exit20:                                  ; preds = %lean_alloc_closure.exit
  %38 = tail call ptr @lean_apply_4(ptr noundef %6, ptr noundef nonnull inttoptr (i64 1 to ptr), ptr noundef nonnull inttoptr (i64 1 to ptr), ptr noundef %2, ptr noundef nonnull %23) #3
  br label %lean_inc.exit

39:                                               ; preds = %37, %36, %34
  %40 = tail call ptr @lean_apply_4(ptr noundef nonnull %6, ptr noundef nonnull inttoptr (i64 1 to ptr), ptr noundef nonnull inttoptr (i64 1 to ptr), ptr noundef %2, ptr noundef nonnull %23) #3
  %.val.i29 = load i32, ptr %6, align 4, !tbaa !4
  %41 = icmp sgt i32 %.val.i29, 0
  br i1 %41, label %42, label %44, !prof !13

42:                                               ; preds = %39
  %43 = add nuw i32 %.val.i29, 1
  store i32 %43, ptr %6, align 4, !tbaa !4
  br label %lean_inc.exit

44:                                               ; preds = %39
  %.not.i30 = icmp eq i32 %.val.i29, 0
  br i1 %.not.i30, label %lean_inc.exit, label %45

45:                                               ; preds = %44
  tail call void @lean_inc_ref_cold(ptr noundef nonnull %6) #3
  br label %lean_inc.exit

lean_inc.exit:                                    ; preds = %45, %44, %42, %lean_inc.exit20
  %46 = phi ptr [ %38, %lean_inc.exit20 ], [ %40, %42 ], [ %40, %44 ], [ %40, %45 ]
  tail call void @lean_inc_heartbeat() #3
  %47 = tail call noalias ptr @mi_malloc_small(i64 noundef 40) #3
  %48 = icmp eq ptr %47, null
  br i1 %48, label %49, label %lean_alloc_closure.exit32

49:                                               ; preds = %lean_inc.exit
  tail call void @lean_internal_panic_out_of_memory() #4
  unreachable

lean_alloc_closure.exit32:                        ; preds = %lean_inc.exit
  %50 = getelementptr inbounds nuw i8, ptr %47, i64 4
  store i32 1, ptr %47, align 4, !tbaa !4
  store i32 -184549336, ptr %50, align 4
  %51 = getelementptr inbounds nuw i8, ptr %47, i64 8
  store ptr @l_StateT_monadControl___rarg___lambda__6, ptr %51, align 8, !tbaa !9
  %52 = getelementptr inbounds nuw i8, ptr %47, i64 16
  store i16 3, ptr %52, align 8, !tbaa !11
  %53 = getelementptr inbounds nuw i8, ptr %47, i64 18
  store i16 2, ptr %53, align 2, !tbaa !11
  %54 = getelementptr inbounds nuw i8, ptr %47, i64 24
  store ptr %0, ptr %54, align 8, !tbaa !9
  %55 = getelementptr inbounds nuw i8, ptr %47, i64 32
  store ptr %6, ptr %55, align 8, !tbaa !9
  %56 = tail call ptr @lean_apply_4(ptr noundef %6, ptr noundef nonnull inttoptr (i64 1 to ptr), ptr noundef nonnull inttoptr (i64 1 to ptr), ptr noundef %46, ptr noundef nonnull %47) #3
  ret ptr %56
}